target datalayout = "e-m:e-p270:32:32-p271:32:32-p272:64:64-i64:64-i128:128-f80:128-n8:16:32:64-S128"
target triple = "x86_64-pc-linux-gnu"

@hf_ipmi_se_cp15_gctsel = internal global i32 0, align 4
@hf_ipmi_se_cp15_group = internal global i32 0, align 4
@ett_ipmi_se_cp15_byte2 = internal global i32 0, align 4
@ett_ipmi_se_cp15_member = internal global i32 0, align 4
@ett_ipmi_se_cp15_byte11 = internal global i32 0, align 4
@.str.1022 = private unnamed_addr constant [15 x i8] c" (unspecified)\00", align 1
@cfgparam_15.byte2 = internal constant [4 x ptr] [ptr @hf_ipmi_se_cp15_force, ptr @hf_ipmi_se_cp15_delayed, ptr @hf_ipmi_se_cp15_channel, ptr null], align 16
@cfgparam_15.byte11 = internal constant [3 x ptr] [ptr @hf_ipmi_se_cp15_retries, ptr @hf_ipmi_se_cp15_operation, ptr null], align 16
@cp15_add_group_and_member.byte2 = internal constant [3 x ptr] [ptr @hf_ipmi_se_cp15_member_check, ptr @hf_ipmi_se_cp15_member_id, ptr null], align 16
@.str.1153 = private unnamed_addr constant [14 x i8] c" (all groups)\00", align 1
@.str.1154 = private unnamed_addr constant [1 x i8] zeroinitializer, align 1
@.str.1155 = private unnamed_addr constant [18 x i8] c"Group ID %d: %d%s\00", align 1

; Function Attrs: null_pointer_is_valid sspstrong uwtable
define internal void @cp15_add_group_and_member(ptr noundef %0, ptr noundef %1, i32 noundef %2, i32 noundef %3) #0 {
  %5 = alloca ptr, align 8
  %6 = alloca ptr, align 8
  %7 = alloca i32, align 4
  %8 = alloca i32, align 4
  %9 = alloca ptr, align 8
  %10 = alloca i8, align 1
  store ptr %0, ptr %5, align 8
  store ptr %1, ptr %6, align 8
  store i32 %2, ptr %7, align 4
  store i32 %3, ptr %8, align 4
  call void @llvm.lifetime.start.p0(i64 8, ptr %9) #5
  call void @llvm.lifetime.start.p0(i64 1, ptr %10) #5
  %11 = load ptr, ptr %6, align 8
  %12 = load i32, ptr %7, align 4
  %13 = call zeroext i8 @tvb_get_uint8(ptr noundef %11, i32 noundef %12)
  store i8 %13, ptr %10, align 1
  %14 = load i8, ptr %10, align 1
  %15 = zext i8 %14 to i32
  %16 = icmp eq i32 %15, 0
  br i1 %16, label %17, label %18

17:                                               ; preds = %4
  store ptr @.str.1022, ptr %9, align 8
  br label %25

18:                                               ; preds = %4
  %19 = load i8, ptr %10, align 1
  %20 = zext i8 %19 to i32
  %21 = icmp eq i32 %20, 255
  br i1 %21, label %22, label %23

22:                                               ; preds = %18
  store ptr @.str.1153, ptr %9, align 8
  br label %24

23:                                               ; preds = %18
  store ptr @.str.1154, ptr %9, align 8
  br label %24

24:                                               ; preds = %23, %22
  br label %25

25:                                               ; preds = %24, %17
  %26 = load ptr, ptr %5, align 8
  %27 = load i32, ptr @hf_ipmi_se_cp15_group, align 4
  %28 = load ptr, ptr %6, align 8
  %29 = load i32, ptr %7, align 4
  %30 = load i8, ptr %10, align 1
  %31 = zext i8 %30 to i32
  %32 = load i32, ptr %8, align 4
  %33 = load i8, ptr %10, align 1
  %34 = zext i8 %33 to i32
  %35 = load ptr, ptr %9, align 8
  %36 = call ptr (ptr, i32, ptr, i32, i32, i32, ptr, ...) @proto_tree_add_uint_format(ptr noundef %26, i32 noundef %27, ptr noundef %28, i32 noundef %29, i32 noundef 1, i32 noundef %31, ptr noundef @.str.1155, i32 noundef %32, i32 noundef %34, ptr noundef %35)
  %37 = load ptr, ptr %5, align 8
  %38 = load ptr, ptr %6, align 8
  %39 = load i32, ptr %7, align 4
  %40 = add i32 %39, 1
  %41 = load i32, ptr @ett_ipmi_se_cp15_member, align 4
  %42 = call ptr @proto_tree_add_bitmask_text(ptr noundef %37, ptr noundef %38, i32 noundef %40, i32 noundef 1, ptr noundef null, ptr noundef null, i32 noundef %41, ptr noundef @cp15_add_group_and_member.byte2, i32 noundef -2147483648, i32 noundef 0)
  call void @llvm.lifetime.end.p0(i64 1, ptr %10) #5
  call void @llvm.lifetime.end.p0(i64 8, ptr %9) #5
  ret void
}

; Function Attrs: null_pointer_is_valid sspstrong uwtable
define internal void @cfgparam_15(ptr noundef %0, ptr noundef %1, ptr noundef %2) #0 {
  %4 = alloca ptr, align 8
  %5 = alloca ptr, align 8
  %6 = alloca ptr, align 8
  store ptr %0, ptr %4, align 8
  store ptr %1, ptr %5, align 8
  store ptr %2, ptr %6, align 8
  %7 = load ptr, ptr %6, align 8
  %8 = load i32, ptr @hf_ipmi_se_cp15_gctsel, align 4
  %9 = load ptr, ptr %4, align 8
  %10 = call ptr @proto_tree_add_item(ptr noundef %7, i32 noundef %8, ptr noundef %9, i32 noundef 0, i32 noundef 1, i32 noundef -2147483648)
  %11 = load ptr, ptr %6, align 8
  %12 = load ptr, ptr %4, align 8
  %13 = load i32, ptr @ett_ipmi_se_cp15_byte2, align 4
  %14 = call ptr @proto_tree_add_bitmask_text(ptr noundef %11, ptr noundef %12, i32 noundef 1, i32 noundef 1, ptr noundef null, ptr noundef null, i32 noundef %13, ptr noundef @cfgparam_15.byte2, i32 noundef -2147483648, i32 noundef 0)
  %15 = load ptr, ptr %6, align 8
  %16 = load ptr, ptr %4, align 8
  call void @cp15_add_group_and_member(ptr noundef %15, ptr noundef %16, i32 noundef 2, i32 noundef 0)
  %17 = load ptr, ptr %6, align 8
  %18 = load ptr, ptr %4, align 8
  call void @cp15_add_group_and_member(ptr noundef %17, ptr noundef %18, i32 noundef 4, i32 noundef 1)
  %19 = load ptr, ptr %6, align 8
  %20 = load ptr, ptr %4, align 8
  call void @cp15_add_group_and_member(ptr noundef %19, ptr noundef %20, i32 noundef 6, i32 noundef 2)
  %21 = load ptr, ptr %6, align 8
  %22 = load ptr, ptr %4, align 8
  call void @cp15_add_group_and_member(ptr noundef %21, ptr noundef %22, i32 noundef 8, i32 noundef 3)
  %23 = load ptr, ptr %6, align 8
  %24 = load ptr, ptr %4, align 8
  %25 = load i32, ptr @ett_ipmi_se_cp15_byte11, align 4
  %26 = call ptr @proto_tree_add_bitmask_text(ptr noundef %23, ptr noundef %24, i32 noundef 10, i32 noundef 1, ptr noundef null, ptr noundef null, i32 noundef %25, ptr noundef @cfgparam_15.byte11, i32 noundef -2147483648, i32 noundef 0)
  ret void
}