; Function Attrs: null_pointer_is_valid sspstrong uwtable
define internal void @cfgparam_15(ptr noundef %0, ptr readnone captures(none) %1, ptr noundef %2) #0 {
  %4 = load i32, ptr @hf_ipmi_se_cp15_gctsel, align 4
  %5 = tail call ptr @proto_tree_add_item(ptr noundef %2, i32 noundef %4, ptr noundef %0, i32 noundef 0, i32 noundef 1, i32 noundef -2147483648)
  %6 = load i32, ptr @ett_ipmi_se_cp15_byte2, align 4
  %7 = tail call ptr @proto_tree_add_bitmask_text(ptr noundef %2, ptr noundef %0, i32 noundef 1, i32 noundef 1, ptr noundef null, ptr noundef null, i32 noundef %6, ptr noundef nonnull @cfgparam_15.byte2, i32 noundef -2147483648, i32 noundef 0)
  %8 = tail call zeroext i8 @tvb_get_uint8(ptr noundef %0, i32 noundef 2)
  %switch.selectcmp.i = icmp eq i8 %8, -1
  %switch.select.i = select i1 %switch.selectcmp.i, ptr @.str.1153, ptr @.str.1154
  %switch.selectcmp14.i = icmp eq i8 %8, 0
  %switch.select15.i = select i1 %switch.selectcmp14.i, ptr @.str.1022, ptr %switch.select.i
  %9 = zext i8 %8 to i32
  %10 = load i32, ptr @hf_ipmi_se_cp15_group, align 4
  %11 = tail call ptr (ptr, i32, ptr, i32, i32, i32, ptr, ...) @proto_tree_add_uint_format(ptr noundef %2, i32 noundef %10, ptr noundef %0, i32 noundef 2, i32 noundef 1, i32 noundef %9, ptr noundef nonnull @.str.1155, i32 noundef 0, i32 noundef %9, ptr noundef nonnull %switch.select15.i)
  %12 = load i32, ptr @ett_ipmi_se_cp15_member, align 4
  %13 = tail call ptr @proto_tree_add_bitmask_text(ptr noundef %2, ptr noundef %0, i32 noundef 3, i32 noundef 1, ptr noundef null, ptr noundef null, i32 noundef %12, ptr noundef nonnull @cp15_add_group_and_member.byte2, i32 noundef -2147483648, i32 noundef 0)
  %14 = tail call zeroext i8 @tvb_get_uint8(ptr noundef %0, i32 noundef 4)
  %switch.selectcmp.i14 = icmp eq i8 %14, -1
  %switch.select.i15 = select i1 %switch.selectcmp.i14, ptr @.str.1153, ptr @.str.1154
  %switch.selectcmp14.i16 = icmp eq i8 %14, 0
  %switch.select15.i17 = select i1 %switch.selectcmp14.i16, ptr @.str.1022, ptr %switch.select.i15
  %15 = zext i8 %14 to i32
  %16 = load i32, ptr @hf_ipmi_se_cp15_group, align 4
  %17 = tail call ptr (ptr, i32, ptr, i32, i32, i32, ptr, ...) @proto_tree_add_uint_format(ptr noundef %2, i32 noundef %16, ptr noundef %0, i32 noundef 4, i32 noundef 1, i32 noundef %15, ptr noundef nonnull @.str.1155, i32 noundef 1, i32 noundef %15, ptr noundef nonnull %switch.select15.i17)
  %18 = load i32, ptr @ett_ipmi_se_cp15_member, align 4
  %19 = tail call ptr @proto_tree_add_bitmask_text(ptr noundef %2, ptr noundef %0, i32 noundef 5, i32 noundef 1, ptr noundef null, ptr noundef null, i32 noundef %18, ptr noundef nonnull @cp15_add_group_and_member.byte2, i32 noundef -2147483648, i32 noundef 0)
  %20 = tail call zeroext i8 @tvb_get_uint8(ptr noundef %0, i32 noundef 6)
  %switch.selectcmp.i18 = icmp eq i8 %20, -1
  %switch.select.i19 = select i1 %switch.selectcmp.i18, ptr @.str.1153, ptr @.str.1154
  %switch.selectcmp14.i20 = icmp eq i8 %20, 0
  %switch.select15.i21 = select i1 %switch.selectcmp14.i20, ptr @.str.1022, ptr %switch.select.i19
  %21 = zext i8 %20 to i32
  %22 = load i32, ptr @hf_ipmi_se_cp15_group, align 4
  %23 = tail call ptr (ptr, i32, ptr, i32, i32, i32, ptr, ...) @proto_tree_add_uint_format(ptr noundef %2, i32 noundef %22, ptr noundef %0, i32 noundef 6, i32 noundef 1, i32 noundef %21, ptr noundef nonnull @.str.1155, i32 noundef 2, i32 noundef %21, ptr noundef nonnull %switch.select15.i21)
  %24 = load i32, ptr @ett_ipmi_se_cp15_member, align 4
  %25 = tail call ptr @proto_tree_add_bitmask_text(ptr noundef %2, ptr noundef %0, i32 noundef 7, i32 noundef 1, ptr noundef null, ptr noundef null, i32 noundef %24, ptr noundef nonnull @cp15_add_group_and_member.byte2, i32 noundef -2147483648, i32 noundef 0)
  %26 = tail call zeroext i8 @tvb_get_uint8(ptr noundef %0, i32 noundef 8)
  %switch.selectcmp.i22 = icmp eq i8 %26, -1
  %switch.select.i23 = select i1 %switch.selectcmp.i22, ptr @.str.1153, ptr @.str.1154
  %switch.selectcmp14.i24 = icmp eq i8 %26, 0
  %switch.select15.i25 = select i1 %switch.selectcmp14.i24, ptr @.str.1022, ptr %switch.select.i23
  %27 = zext i8 %26 to i32
  %28 = load i32, ptr @hf_ipmi_se_cp15_group, align 4
  %29 = tail call ptr (ptr, i32, ptr, i32, i32, i32, ptr, ...) @proto_tree_add_uint_format(ptr noundef %2, i32 noundef %28, ptr noundef %0, i32 noundef 8, i32 noundef 1, i32 noundef %27, ptr noundef nonnull @.str.1155, i32 noundef 3, i32 noundef %27, ptr noundef nonnull %switch.select15.i25)
  %30 = load i32, ptr @ett_ipmi_se_cp15_member, align 4
  %31 = tail call ptr @proto_tree_add_bitmask_text(ptr noundef %2, ptr noundef %0, i32 noundef 9, i32 noundef 1, ptr noundef null, ptr noundef null, i32 noundef %30, ptr noundef nonnull @cp15_add_group_and_member.byte2, i32 noundef -2147483648, i32 noundef 0)
  %32 = load i32, ptr @ett_ipmi_se_cp15_byte11, align 4
  %33 = tail call ptr @proto_tree_add_bitmask_text(ptr noundef %2, ptr noundef %0, i32 noundef 10, i32 noundef 1, ptr noundef null, ptr noundef null, i32 noundef %32, ptr noundef nonnull @cfgparam_15.byte11, i32 noundef -2147483648, i32 noundef 0)
  ret void
}